target datalayout = "e-m:e-p270:32:32-p271:32:32-p272:64:64-i64:64-i128:128-f80:128-n8:16:32:64-S128"
target triple = "x86_64-pc-linux-gnu"

%struct.bio_st = type { ptr, ptr, ptr, ptr, ptr, i32, i32, i32, i32, i32, ptr, ptr, ptr, %struct.CRYPTO_REF_COUNT, i64, i64, %struct.crypto_ex_data_st }
%struct.CRYPTO_REF_COUNT = type { i32 }
%struct.crypto_ex_data_st = type { ptr, ptr }

; Function Attrs: nounwind uwtable
define internal i32 @file_free(ptr noundef %0) #0 {
  %2 = alloca i32, align 4
  %3 = alloca ptr, align 8
  store ptr %0, ptr %3, align 8, !tbaa !12
  %4 = load ptr, ptr %3, align 8, !tbaa !12
  %5 = icmp eq ptr %4, null
  br i1 %5, label %6, label %7

6:                                                ; preds = %1
  store i32 0, ptr %2, align 4
  br label %47

7:                                                ; preds = %1
  %8 = load ptr, ptr %3, align 8, !tbaa !12
  %9 = getelementptr inbounds nuw %struct.bio_st, ptr %8, i32 0, i32 6
  %10 = load i32, ptr %9, align 4, !tbaa !27
  %11 = icmp ne i32 %10, 0
  br i1 %11, label %12, label %46

12:                                               ; preds = %7
  %13 = load ptr, ptr %3, align 8, !tbaa !12
  %14 = getelementptr inbounds nuw %struct.bio_st, ptr %13, i32 0, i32 5
  %15 = load i32, ptr %14, align 8, !tbaa !14
  %16 = icmp ne i32 %15, 0
  br i1 %16, label %17, label %43

17:                                               ; preds = %12
  %18 = load ptr, ptr %3, align 8, !tbaa !12
  %19 = getelementptr inbounds nuw %struct.bio_st, ptr %18, i32 0, i32 10
  %20 = load ptr, ptr %19, align 8, !tbaa !23
  %21 = icmp ne ptr %20, null
  br i1 %21, label %22, label %43

22:                                               ; preds = %17
  %23 = load ptr, ptr %3, align 8, !tbaa !12
  %24 = getelementptr inbounds nuw %struct.bio_st, ptr %23, i32 0, i32 7
  %25 = load i32, ptr %24, align 8, !tbaa !22
  %26 = and i32 %25, 0
  %27 = icmp ne i32 %26, 0
  br i1 %27, label %28, label %33

28:                                               ; preds = %22
  %29 = load ptr, ptr %3, align 8, !tbaa !12
  %30 = getelementptr inbounds nuw %struct.bio_st, ptr %29, i32 0, i32 10
  %31 = load ptr, ptr %30, align 8, !tbaa !23
  %32 = call i32 @fclose(ptr noundef %31)
  br label %38

33:                                               ; preds = %22
  %34 = load ptr, ptr %3, align 8, !tbaa !12
  %35 = getelementptr inbounds nuw %struct.bio_st, ptr %34, i32 0, i32 10
  %36 = load ptr, ptr %35, align 8, !tbaa !23
  %37 = call i32 @fclose(ptr noundef %36)
  br label %38

38:                                               ; preds = %33, %28
  %39 = load ptr, ptr %3, align 8, !tbaa !12
  %40 = getelementptr inbounds nuw %struct.bio_st, ptr %39, i32 0, i32 10
  store ptr null, ptr %40, align 8, !tbaa !23
  %41 = load ptr, ptr %3, align 8, !tbaa !12
  %42 = getelementptr inbounds nuw %struct.bio_st, ptr %41, i32 0, i32 7
  store i32 0, ptr %42, align 8, !tbaa !22
  br label %43

43:                                               ; preds = %38, %17, %12
  %44 = load ptr, ptr %3, align 8, !tbaa !12
  %45 = getelementptr inbounds nuw %struct.bio_st, ptr %44, i32 0, i32 5
  store i32 0, ptr %45, align 8, !tbaa !14
  br label %46

46:                                               ; preds = %43, %7
  store i32 1, ptr %2, align 4
  br label %47

47:                                               ; preds = %46, %6
  %48 = load i32, ptr %2, align 4
  ret i32 %48
}