; Function Attrs: nofree nounwind uwtable
define internal range(i32 0, 2) i32 @file_free(ptr noundef captures(address_is_null) %0) #7 {
  %2 = icmp eq ptr %0, null
  br i1 %2, label %16, label %3

3:                                                ; preds = %1
  %4 = getelementptr inbounds nuw i8, ptr %0, i64 44
  %5 = load i32, ptr %4, align 4, !tbaa !20
  %.not = icmp eq i32 %5, 0
  br i1 %.not, label %16, label %6

6:                                                ; preds = %3
  %7 = getelementptr inbounds nuw i8, ptr %0, i64 40
  %8 = load i32, ptr %7, align 8, !tbaa !7
  %.not12 = icmp eq i32 %8, 0
  br i1 %.not12, label %15, label %9

9:                                                ; preds = %6
  %10 = getelementptr inbounds nuw i8, ptr %0, i64 64
  %11 = load ptr, ptr %10, align 8, !tbaa !18
  %.not13 = icmp eq ptr %11, null
  br i1 %.not13, label %15, label %12

12:                                               ; preds = %9
  %13 = getelementptr inbounds nuw i8, ptr %0, i64 48
  %14 = tail call i32 @fclose(ptr noundef nonnull %11)
  store ptr null, ptr %10, align 8, !tbaa !18
  store i32 0, ptr %13, align 8, !tbaa !21
  br label %15

15:                                               ; preds = %12, %9, %6
  store i32 0, ptr %7, align 8, !tbaa !7
  br label %16

16:                                               ; preds = %3, %15, %1
  %.0 = phi i32 [ 0, %1 ], [ 1, %15 ], [ 1, %3 ]
  ret i32 %.0
}